target datalayout = "e-m:e-p270:32:32-p271:32:32-p272:64:64-i64:64-i128:128-f80:128-n8:16:32:64-S128"
target triple = "x86_64-unknown-linux-gnu"

%"class.std::set.0" = type { %"class.std::_Rb_tree.1" }
%"class.std::_Rb_tree.1" = type { %"struct.std::_Rb_tree<QuantLib::Observer *, QuantLib::Observer *, std::_Identity<QuantLib::Observer *>, std::less<QuantLib::Observer *>>::_Rb_tree_impl" }
%"struct.std::_Rb_tree<QuantLib::Observer *, QuantLib::Observer *, std::_Identity<QuantLib::Observer *>, std::less<QuantLib::Observer *>>::_Rb_tree_impl" = type { [8 x i8], %"struct.std::_Rb_tree_header" }
%"struct.std::_Rb_tree_header" = type { %"struct.std::_Rb_tree_node_base", i64 }
%"struct.std::_Rb_tree_node_base" = type { i32, ptr, ptr, ptr }
%"class.std::set" = type { %"class.std::_Rb_tree" }
%"class.std::_Rb_tree" = type { %"struct.std::_Rb_tree<boost::shared_ptr<QuantLib::Observable>, boost::shared_ptr<QuantLib::Observable>, std::_Identity<boost::shared_ptr<QuantLib::Observable>>, std::less<boost::shared_ptr<QuantLib::Observable>>>::_Rb_tree_impl" }
%"struct.std::_Rb_tree<boost::shared_ptr<QuantLib::Observable>, boost::shared_ptr<QuantLib::Observable>, std::_Identity<boost::shared_ptr<QuantLib::Observable>>, std::less<boost::shared_ptr<QuantLib::Observable>>>::_Rb_tree_impl" = type { [8 x i8], %"struct.std::_Rb_tree_header" }
%"class.boost::detail::shared_count" = type { ptr }
%"class.QuantLib::Observable" = type { ptr, %"class.std::set.0" }
%"class.QuantLib::Observer" = type { ptr, %"class.std::set" }
%"class.QuantLib::Date" = type { i64 }
%"class.std::map" = type { %"class.std::_Rb_tree.10" }
%"class.std::_Rb_tree.10" = type { %"struct.std::_Rb_tree<std::__cxx11::basic_string<char>, std::pair<const std::__cxx11::basic_string<char>, boost::any>, std::_Select1st<std::pair<const std::__cxx11::basic_string<char>, boost::any>>, std::less<std::__cxx11::basic_string<char>>>::_Rb_tree_impl" }
%"struct.std::_Rb_tree<std::__cxx11::basic_string<char>, std::pair<const std::__cxx11::basic_string<char>, boost::any>, std::_Select1st<std::pair<const std::__cxx11::basic_string<char>, boost::any>>, std::less<std::__cxx11::basic_string<char>>>::_Rb_tree_impl" = type { [8 x i8], %"struct.std::_Rb_tree_header" }
%"class.boost::shared_ptr.16" = type { ptr, %"class.boost::detail::shared_count" }
%"class.boost::shared_ptr.17" = type { ptr, %"class.boost::detail::shared_count" }
%"class.QuantLib::Option::arguments" = type { %"class.QuantLib::PricingEngine::arguments", %"class.boost::shared_ptr.16", %"class.boost::shared_ptr.17" }
%"class.QuantLib::PricingEngine::arguments" = type { ptr }
%"class.QuantLib::AnalyticPartialTimeBarrierOptionEngine" = type { %"class.QuantLib::PartialTimeBarrierOption::engine", %"class.boost::shared_ptr.23" }
%"class.QuantLib::PartialTimeBarrierOption::engine" = type { %"class.QuantLib::GenericEngine" }
%"class.QuantLib::GenericEngine" = type { %"class.QuantLib::PricingEngine", %"class.QuantLib::Observer", %"class.QuantLib::PartialTimeBarrierOption::arguments", %"class.QuantLib::OneAssetOption::results" }
%"class.QuantLib::PricingEngine" = type { %"class.QuantLib::Observable" }
%"class.QuantLib::PartialTimeBarrierOption::arguments" = type { %"class.QuantLib::Option::arguments", i32, i32, double, double, %"class.QuantLib::Date" }
%"class.QuantLib::OneAssetOption::results" = type { %"class.QuantLib::Instrument::results", %"class.QuantLib::Greeks", %"class.QuantLib::MoreGreeks" }
%"class.QuantLib::Instrument::results" = type { %"class.QuantLib::PricingEngine::results", double, double, %"class.QuantLib::Date", %"class.std::map" }
%"class.QuantLib::PricingEngine::results" = type { ptr }
%"class.QuantLib::Greeks" = type { %"class.QuantLib::PricingEngine::results", double, double, double, double, double, double }
%"class.QuantLib::MoreGreeks" = type { %"class.QuantLib::PricingEngine::results", double, double, double, double, double }
%"class.boost::shared_ptr.23" = type { ptr, %"class.boost::detail::shared_count" }

@.str.22 = private unnamed_addr constant [8 x i8] c"px != 0\00", align 1
@.str.23 = private unnamed_addr constant [102 x i8] c"generated/home/dtcxzyw/WorkSpace/SDK/vcpkg/installed/x64-linux/include/boost/smart_ptr/shared_ptr.hpp\00", align 1
@__PRETTY_FUNCTION__._ZNK5boost10shared_ptrIN8QuantLib8ExerciseEEptEv = private unnamed_addr constant [133 x i8] c"typename boost::detail::sp_member_access<T>::type boost::shared_ptr<QuantLib::Exercise>::operator->() const [T = QuantLib::Exercise]\00", align 1

; Function Attrs: mustprogress uwtable
define linkonce_odr noundef ptr @_ZNK5boost10shared_ptrIN8QuantLib8ExerciseEEptEv(ptr noundef nonnull align 8 dereferenceable(16) %this) #2 comdat align 2 {
entry:
  %this.addr = alloca ptr, align 8
  store ptr %this, ptr %this.addr, align 8, !tbaa !3
  %this1 = load ptr, ptr %this.addr, align 8
  %px = getelementptr inbounds nuw %"class.boost::shared_ptr.17", ptr %this1, i32 0, i32 0
  %0 = load ptr, ptr %px, align 8, !tbaa !83
  %cmp = icmp ne ptr %0, null
  %lnot = xor i1 %cmp, true
  %lnot2 = xor i1 %lnot, true
  %conv = zext i1 %lnot2 to i64
  %expval = call i64 @llvm.expect.i64(i64 %conv, i64 1)
  %tobool = icmp ne i64 %expval, 0
  br i1 %tobool, label %cond.true, label %cond.false

cond.true:                                        ; preds = %entry
  br label %cond.end

cond.false:                                       ; preds = %entry
  call void @_ZN5boost16assertion_failedEPKcS1_S1_l(ptr noundef @.str.22, ptr noundef @__PRETTY_FUNCTION__._ZNK5boost10shared_ptrIN8QuantLib8ExerciseEEptEv, ptr noundef @.str.23, i64 noundef 784)
  br label %cond.end

cond.end:                                         ; preds = %cond.false, %cond.true
  %px3 = getelementptr inbounds nuw %"class.boost::shared_ptr.17", ptr %this1, i32 0, i32 0
  %1 = load ptr, ptr %px3, align 8, !tbaa !83
  ret ptr %1
}

; Function Attrs: mustprogress uwtable
define linkonce_odr noundef ptr @_ZNK5boost10shared_ptrIN8QuantLib30GeneralizedBlackScholesProcessEEptEv(ptr noundef nonnull align 8 dereferenceable(16) %this) #2 comdat align 2 {
entry:
  %this.addr = alloca ptr, align 8
  store ptr %this, ptr %this.addr, align 8, !tbaa !3
  %this1 = load ptr, ptr %this.addr, align 8
  %px = getelementptr inbounds nuw %"class.boost::shared_ptr.23", ptr %this1, i32 0, i32 0
  %0 = load ptr, ptr %px, align 8, !tbaa !24
  %cmp = icmp ne ptr %0, null
  %lnot = xor i1 %cmp, true
  %lnot2 = xor i1 %lnot, true
  %conv = zext i1 %lnot2 to i64
  %expval = call i64 @llvm.expect.i64(i64 %conv, i64 1)
  %tobool = icmp ne i64 %expval, 0
  br i1 %tobool, label %cond.true, label %cond.false

cond.true:                                        ; preds = %entry
  br label %cond.end

cond.false:                                       ; preds = %entry
  call void @_ZN5boost16assertion_failedEPKcS1_S1_l(ptr noundef @.str.22, ptr noundef @__PRETTY_FUNCTION__._ZNK5boost10shared_ptrIN8QuantLib30GeneralizedBlackScholesProcessEEptEv, ptr noundef @.str.23, i64 noundef 784)
  br label %cond.end

cond.end:                                         ; preds = %cond.false, %cond.true
  %px3 = getelementptr inbounds nuw %"class.boost::shared_ptr.23", ptr %this1, i32 0, i32 0
  %1 = load ptr, ptr %px3, align 8, !tbaa !24
  ret ptr %1
}

; Function Attrs: inlinehint mustprogress nounwind uwtable
define linkonce_odr noundef double @_ZSt3powIdiEN9__gnu_cxx9__promoteIDTplcvNS1_IT_Xsr3std12__is_integerIS2_EE7__valueEE6__typeELi0EcvNS1_IT0_Xsr3std12__is_integerIS5_EE7__valueEE6__typeELi0EEXsr3std12__is_integerIS8_EE7__valueEE6__typeES2_S5_(double noundef %__x, i32 noundef %__y) #5 comdat {
entry:
  %__x.addr = alloca double, align 8
  %__y.addr = alloca i32, align 4
  store double %__x, ptr %__x.addr, align 8, !tbaa !27
  store i32 %__y, ptr %__y.addr, align 4, !tbaa !76
  %0 = load double, ptr %__x.addr, align 8, !tbaa !27
  %1 = load i32, ptr %__y.addr, align 4, !tbaa !76
  %conv = sitofp i32 %1 to double
  %call = call double @pow(double noundef %0, double noundef %conv) #15, !tbaa !76
  ret double %call
}

; Function Attrs: mustprogress nounwind uwtable
define noundef double @_ZNK8QuantLib38AnalyticPartialTimeBarrierOptionEngine7barrierEv(ptr noundef nonnull align 8 dereferenceable(384) %this) #1 align 2 {
entry:
  %this.addr = alloca ptr, align 8
  store ptr %this, ptr %this.addr, align 8, !tbaa !3
  %this1 = load ptr, ptr %this.addr, align 8
  %arguments_ = getelementptr inbounds nuw %"class.QuantLib::GenericEngine", ptr %this1, i32 0, i32 2
  %barrier = getelementptr inbounds nuw %"class.QuantLib::PartialTimeBarrierOption::arguments", ptr %arguments_, i32 0, i32 3
  %0 = load double, ptr %barrier, align 8, !tbaa !78
  ret double %0
}

; Function Attrs: mustprogress uwtable
define noundef double @_ZNK8QuantLib38AnalyticPartialTimeBarrierOptionEngine12residualTimeEv(ptr noundef nonnull align 8 dereferenceable(384) %this) #2 align 2 {
entry:
  %this.addr = alloca ptr, align 8
  %ref.tmp = alloca %"class.QuantLib::Date", align 8
  store ptr %this, ptr %this.addr, align 8, !tbaa !3
  %this1 = load ptr, ptr %this.addr, align 8
  %process_ = getelementptr inbounds nuw %"class.QuantLib::AnalyticPartialTimeBarrierOptionEngine", ptr %this1, i32 0, i32 1
  %call = call noundef ptr @_ZNK5boost10shared_ptrIN8QuantLib30GeneralizedBlackScholesProcessEEptEv(ptr noundef nonnull align 8 dereferenceable(16) %process_)
  call void @llvm.lifetime.start.p0(i64 8, ptr %ref.tmp) #15
  %arguments_ = getelementptr inbounds nuw %"class.QuantLib::GenericEngine", ptr %this1, i32 0, i32 2
  %exercise = getelementptr inbounds nuw %"class.QuantLib::Option::arguments", ptr %arguments_, i32 0, i32 2
  %call2 = call noundef ptr @_ZNK5boost10shared_ptrIN8QuantLib8ExerciseEEptEv(ptr noundef nonnull align 8 dereferenceable(16) %exercise)
  %call3 = call i64 @_ZNK8QuantLib8Exercise8lastDateEv(ptr noundef nonnull align 8 dereferenceable(36) %call2)
  %coerce.dive = getelementptr inbounds nuw %"class.QuantLib::Date", ptr %ref.tmp, i32 0, i32 0
  store i64 %call3, ptr %coerce.dive, align 8
  %vtable = load ptr, ptr %call, align 8, !tbaa !20
  %vfn = getelementptr inbounds ptr, ptr %vtable, i64 14
  %0 = load ptr, ptr %vfn, align 8
  %call4 = call noundef double %0(ptr noundef nonnull align 8 dereferenceable(250) %call, ptr noundef nonnull align 8 dereferenceable(8) %ref.tmp)
  call void @llvm.lifetime.end.p0(i64 8, ptr %ref.tmp) #15
  ret double %call4
}

; Function Attrs: mustprogress uwtable
define noundef double @_ZNK8QuantLib38AnalyticPartialTimeBarrierOptionEngine10underlyingEv(ptr noundef nonnull align 8 dereferenceable(384) %this) #2 align 2 {
entry:
  %this.addr = alloca ptr, align 8
  store ptr %this, ptr %this.addr, align 8, !tbaa !3
  %this1 = load ptr, ptr %this.addr, align 8
  %process_ = getelementptr inbounds nuw %"class.QuantLib::AnalyticPartialTimeBarrierOptionEngine", ptr %this1, i32 0, i32 1
  %call = call noundef ptr @_ZNK5boost10shared_ptrIN8QuantLib30GeneralizedBlackScholesProcessEEptEv(ptr noundef nonnull align 8 dereferenceable(16) %process_)
  %vtable = load ptr, ptr %call, align 8, !tbaa !20
  %vfn = getelementptr inbounds ptr, ptr %vtable, i64 15
  %0 = load ptr, ptr %vfn, align 8
  %call2 = call noundef double %0(ptr noundef nonnull align 8 dereferenceable(250) %call)
  ret double %call2
}

; Function Attrs: mustprogress uwtable
define noundef double @_ZNK8QuantLib38AnalyticPartialTimeBarrierOptionEngine2f1Ev(ptr noundef nonnull align 8 dereferenceable(384) %this) #2 align 2 {
entry:
  %this.addr = alloca ptr, align 8
  %S = alloca double, align 8
  %T = alloca double, align 8
  %sigma = alloca double, align 8
  store ptr %this, ptr %this.addr, align 8, !tbaa !3
  %this1 = load ptr, ptr %this.addr, align 8
  call void @llvm.lifetime.start.p0(i64 8, ptr %S) #15
  %call = call noundef double @_ZNK8QuantLib38AnalyticPartialTimeBarrierOptionEngine10underlyingEv(ptr noundef nonnull align 8 dereferenceable(384) %this1)
  store double %call, ptr %S, align 8, !tbaa !27
  call void @llvm.lifetime.start.p0(i64 8, ptr %T) #15
  %call2 = call noundef double @_ZNK8QuantLib38AnalyticPartialTimeBarrierOptionEngine12residualTimeEv(ptr noundef nonnull align 8 dereferenceable(384) %this1)
  store double %call2, ptr %T, align 8, !tbaa !27
  call void @llvm.lifetime.start.p0(i64 8, ptr %sigma) #15
  %0 = load double, ptr %T, align 8, !tbaa !27
  %call3 = call noundef double @_ZNK8QuantLib38AnalyticPartialTimeBarrierOptionEngine10volatilityEd(ptr noundef nonnull align 8 dereferenceable(384) %this1, double noundef %0)
  store double %call3, ptr %sigma, align 8, !tbaa !27
  %1 = load double, ptr %S, align 8, !tbaa !27
  %call4 = call noundef double @_ZNK8QuantLib38AnalyticPartialTimeBarrierOptionEngine6strikeEv(ptr noundef nonnull align 8 dereferenceable(384) %this1)
  %div = fdiv double %1, %call4
  %call5 = call double @log(double noundef %div) #15, !tbaa !76
  %call6 = call noundef double @_ZNK8QuantLib38AnalyticPartialTimeBarrierOptionEngine7barrierEv(ptr noundef nonnull align 8 dereferenceable(384) %this1)
  %2 = load double, ptr %S, align 8, !tbaa !27
  %div7 = fdiv double %call6, %2
  %call8 = call double @log(double noundef %div7) #15, !tbaa !76
  %3 = call double @llvm.fmuladd.f64(double 2.000000e+00, double %call8, double %call5)
  %call9 = call noundef double @_ZNK8QuantLib38AnalyticPartialTimeBarrierOptionEngine12riskFreeRateEv(ptr noundef nonnull align 8 dereferenceable(384) %this1)
  %call10 = call noundef double @_ZNK8QuantLib38AnalyticPartialTimeBarrierOptionEngine13dividendYieldEv(ptr noundef nonnull align 8 dereferenceable(384) %this1)
  %sub = fsub double %call9, %call10
  %4 = load double, ptr %sigma, align 8, !tbaa !27
  %call11 = call noundef double @_ZSt3powIdiEN9__gnu_cxx9__promoteIDTplcvNS1_IT_Xsr3std12__is_integerIS2_EE7__valueEE6__typeELi0EcvNS1_IT0_Xsr3std12__is_integerIS5_EE7__valueEE6__typeELi0EEXsr3std12__is_integerIS8_EE7__valueEE6__typeES2_S5_(double noundef %4, i32 noundef 2)
  %div12 = fdiv double %call11, 2.000000e+00
  %add = fadd double %sub, %div12
  %5 = load double, ptr %T, align 8, !tbaa !27
  %6 = call double @llvm.fmuladd.f64(double %add, double %5, double %3)
  %7 = load double, ptr %sigma, align 8, !tbaa !27
  %8 = load double, ptr %T, align 8, !tbaa !27
  %call13 = call double @sqrt(double noundef %8) #15, !tbaa !76
  %mul = fmul double %7, %call13
  %div14 = fdiv double %6, %mul
  call void @llvm.lifetime.end.p0(i64 8, ptr %sigma) #15
  call void @llvm.lifetime.end.p0(i64 8, ptr %T) #15
  call void @llvm.lifetime.end.p0(i64 8, ptr %S) #15
  ret double %div14
}