; Function Attrs: mustprogress uwtable
define noundef double @_ZNK8QuantLib38AnalyticPartialTimeBarrierOptionEngine2f1Ev(ptr nocapture noundef nonnull readonly align 8 dereferenceable(384) %this) local_unnamed_addr #9 align 2 {
entry:
  %ref.tmp.i = alloca %"class.QuantLib::Date", align 8
  %process_.i = getelementptr inbounds nuw i8, ptr %this, i64 368
  %0 = load ptr, ptr %process_.i, align 8, !tbaa !48
  %cmp.not.i.i = icmp eq ptr %0, null
  br i1 %cmp.not.i.i, label %cond.false.i.i, label %_ZNK8QuantLib38AnalyticPartialTimeBarrierOptionEngine10underlyingEv.exit, !prof !66

cond.false.i.i:                                   ; preds = %entry
  tail call void @_ZN5boost16assertion_failedEPKcS1_S1_l(ptr noundef nonnull @.str.22, ptr noundef nonnull @__PRETTY_FUNCTION__._ZNK5boost10shared_ptrIN8QuantLib30GeneralizedBlackScholesProcessEEptEv, ptr noundef nonnull @.str.23, i64 noundef 784)
  %.pre.i.i = load ptr, ptr %process_.i, align 8, !tbaa !48
  br label %_ZNK8QuantLib38AnalyticPartialTimeBarrierOptionEngine10underlyingEv.exit

_ZNK8QuantLib38AnalyticPartialTimeBarrierOptionEngine10underlyingEv.exit: ; preds = %entry, %cond.false.i.i
  %1 = phi ptr [ %0, %entry ], [ %.pre.i.i, %cond.false.i.i ]
  %vtable.i = load ptr, ptr %1, align 8, !tbaa !33
  %vfn.i = getelementptr inbounds i8, ptr %vtable.i, i64 120
  %2 = load ptr, ptr %vfn.i, align 8
  %call2.i = tail call noundef double %2(ptr noundef nonnull align 8 dereferenceable(250) %1)
  %3 = load ptr, ptr %process_.i, align 8, !tbaa !48
  %cmp.not.i.i6 = icmp eq ptr %3, null
  br i1 %cmp.not.i.i6, label %cond.false.i.i9, label %_ZNK5boost10shared_ptrIN8QuantLib30GeneralizedBlackScholesProcessEEptEv.exit.i, !prof !66

cond.false.i.i9:                                  ; preds = %_ZNK8QuantLib38AnalyticPartialTimeBarrierOptionEngine10underlyingEv.exit
  tail call void @_ZN5boost16assertion_failedEPKcS1_S1_l(ptr noundef nonnull @.str.22, ptr noundef nonnull @__PRETTY_FUNCTION__._ZNK5boost10shared_ptrIN8QuantLib30GeneralizedBlackScholesProcessEEptEv, ptr noundef nonnull @.str.23, i64 noundef 784)
  %.pre.i.i10 = load ptr, ptr %process_.i, align 8, !tbaa !48
  br label %_ZNK5boost10shared_ptrIN8QuantLib30GeneralizedBlackScholesProcessEEptEv.exit.i

_ZNK5boost10shared_ptrIN8QuantLib30GeneralizedBlackScholesProcessEEptEv.exit.i: ; preds = %cond.false.i.i9, %_ZNK8QuantLib38AnalyticPartialTimeBarrierOptionEngine10underlyingEv.exit
  %4 = phi ptr [ %3, %_ZNK8QuantLib38AnalyticPartialTimeBarrierOptionEngine10underlyingEv.exit ], [ %.pre.i.i10, %cond.false.i.i9 ]
  call void @llvm.lifetime.start.p0(i64 8, ptr nonnull %ref.tmp.i) #30
  %exercise.i = getelementptr inbounds nuw i8, ptr %this, i64 136
  %5 = load ptr, ptr %exercise.i, align 8, !tbaa !44
  %cmp.not.i1.i = icmp eq ptr %5, null
  br i1 %cmp.not.i1.i, label %cond.false.i2.i, label %_ZNK8QuantLib38AnalyticPartialTimeBarrierOptionEngine12residualTimeEv.exit, !prof !66

cond.false.i2.i:                                  ; preds = %_ZNK5boost10shared_ptrIN8QuantLib30GeneralizedBlackScholesProcessEEptEv.exit.i
  tail call void @_ZN5boost16assertion_failedEPKcS1_S1_l(ptr noundef nonnull @.str.22, ptr noundef nonnull @__PRETTY_FUNCTION__._ZNK5boost10shared_ptrIN8QuantLib8ExerciseEEptEv, ptr noundef nonnull @.str.23, i64 noundef 784)
  %.pre.i3.i = load ptr, ptr %exercise.i, align 8, !tbaa !44
  br label %_ZNK8QuantLib38AnalyticPartialTimeBarrierOptionEngine12residualTimeEv.exit

_ZNK8QuantLib38AnalyticPartialTimeBarrierOptionEngine12residualTimeEv.exit: ; preds = %_ZNK5boost10shared_ptrIN8QuantLib30GeneralizedBlackScholesProcessEEptEv.exit.i, %cond.false.i2.i
  %6 = phi ptr [ %5, %_ZNK5boost10shared_ptrIN8QuantLib30GeneralizedBlackScholesProcessEEptEv.exit.i ], [ %.pre.i3.i, %cond.false.i2.i ]
  %call3.i = tail call i64 @_ZNK8QuantLib8Exercise8lastDateEv(ptr noundef nonnull align 8 dereferenceable(36) %6)
  store i64 %call3.i, ptr %ref.tmp.i, align 8
  %vtable.i7 = load ptr, ptr %4, align 8, !tbaa !33
  %vfn.i8 = getelementptr inbounds i8, ptr %vtable.i7, i64 112
  %7 = load ptr, ptr %vfn.i8, align 8
  %call4.i = call noundef double %7(ptr noundef nonnull align 8 dereferenceable(250) %4, ptr noundef nonnull align 8 dereferenceable(8) %ref.tmp.i)
  call void @llvm.lifetime.end.p0(i64 8, ptr nonnull %ref.tmp.i) #30
  %call3 = call noundef double @_ZNK8QuantLib38AnalyticPartialTimeBarrierOptionEngine10volatilityEd(ptr noundef nonnull align 8 dereferenceable(384) %this, double noundef %call4.i)
  %call4 = call noundef double @_ZNK8QuantLib38AnalyticPartialTimeBarrierOptionEngine6strikeEv(ptr noundef nonnull align 8 dereferenceable(384) %this)
  %div = fdiv double %call2.i, %call4
  %call5 = call double @log(double noundef %div) #30, !tbaa !94
  %barrier.i = getelementptr inbounds nuw i8, ptr %this, i64 160
  %8 = load double, ptr %barrier.i, align 8, !tbaa !96
  %div7 = fdiv double %8, %call2.i
  %call8 = call double @log(double noundef %div7) #30, !tbaa !94
  %9 = call double @llvm.fmuladd.f64(double %call8, double 2.000000e+00, double %call5)
  %call9 = call noundef double @_ZNK8QuantLib38AnalyticPartialTimeBarrierOptionEngine12riskFreeRateEv(ptr noundef nonnull align 8 dereferenceable(384) %this)
  %call10 = call noundef double @_ZNK8QuantLib38AnalyticPartialTimeBarrierOptionEngine13dividendYieldEv(ptr noundef nonnull align 8 dereferenceable(384) %this)
  %sub = fsub double %call9, %call10
  %square = fmul double %call3, %call3
  %div12 = fmul double %square, 5.000000e-01
  %add = fadd double %div12, %sub
  %10 = call double @llvm.fmuladd.f64(double %add, double %call4.i, double %9)
  %call13 = call double @sqrt(double noundef %call4.i) #30, !tbaa !94
  %mul = fmul double %call3, %call13
  %div14 = fdiv double %10, %mul
  ret double %div14
}